target datalayout = "e-m:e-p270:32:32-p271:32:32-p272:64:64-i64:64-i128:128-f80:128-n8:16:32:64-S128"
target triple = "x86_64-pc-linux-gnu"

%struct.Curl_cfilter = type { ptr, ptr, ptr, ptr, i32, i8 }

@Curl_ccalloc = external global ptr, align 8

; Function Attrs: nounwind uwtable
define dso_local i32 @Curl_cf_create(ptr noundef %0, ptr noundef %1, ptr noundef %2) #0 {
  %4 = alloca ptr, align 8
  %5 = alloca ptr, align 8
  %6 = alloca ptr, align 8
  %7 = alloca ptr, align 8
  %8 = alloca i32, align 4
  store ptr %0, ptr %4, align 8, !tbaa !66
  store ptr %1, ptr %5, align 8, !tbaa !137
  store ptr %2, ptr %6, align 8, !tbaa !57
  call void @llvm.lifetime.start.p0(i64 8, ptr %7) #5
  call void @llvm.lifetime.start.p0(i64 4, ptr %8) #5
  store i32 27, ptr %8, align 4, !tbaa !53
  br label %9

9:                                                ; preds = %3
  br label %10

10:                                               ; preds = %9
  br label %11

11:                                               ; preds = %10
  %12 = load ptr, ptr @Curl_ccalloc, align 8, !tbaa !57
  %13 = call ptr %12(i64 noundef 1, i64 noundef 40)
  store ptr %13, ptr %7, align 8, !tbaa !4
  %14 = load ptr, ptr %7, align 8, !tbaa !4
  %15 = icmp ne ptr %14, null
  br i1 %15, label %17, label %16

16:                                               ; preds = %11
  br label %24

17:                                               ; preds = %11
  %18 = load ptr, ptr %5, align 8, !tbaa !137
  %19 = load ptr, ptr %7, align 8, !tbaa !4
  %20 = getelementptr inbounds nuw %struct.Curl_cfilter, ptr %19, i32 0, i32 0
  store ptr %18, ptr %20, align 8, !tbaa !24
  %21 = load ptr, ptr %6, align 8, !tbaa !57
  %22 = load ptr, ptr %7, align 8, !tbaa !4
  %23 = getelementptr inbounds nuw %struct.Curl_cfilter, ptr %22, i32 0, i32 2
  store ptr %21, ptr %23, align 8, !tbaa !138
  store i32 0, ptr %8, align 4, !tbaa !53
  br label %24

24:                                               ; preds = %17, %16
  %25 = load ptr, ptr %7, align 8, !tbaa !4
  %26 = load ptr, ptr %4, align 8, !tbaa !66
  store ptr %25, ptr %26, align 8, !tbaa !4
  %27 = load i32, ptr %8, align 4, !tbaa !53
  call void @llvm.lifetime.end.p0(i64 4, ptr %8) #5
  call void @llvm.lifetime.end.p0(i64 8, ptr %7) #5
  ret i32 %27
}