; Function Attrs: nounwind uwtable
define dso_local range(i32 0, 28) i32 @Curl_cf_create(ptr noundef writeonly captures(none) initializes((0, 8)) %0, ptr noundef %1, ptr noundef %2) local_unnamed_addr #1 {
  %4 = load ptr, ptr @Curl_ccalloc, align 8, !tbaa !53
  %5 = tail call ptr %4(i64 noundef 1, i64 noundef 40) #12
  %.not = icmp eq ptr %5, null
  br i1 %.not, label %8, label %6

6:                                                ; preds = %3
  store ptr %1, ptr %5, align 8, !tbaa !15
  %7 = getelementptr inbounds nuw i8, ptr %5, i64 16
  store ptr %2, ptr %7, align 8, !tbaa !124
  br label %8

8:                                                ; preds = %3, %6
  %.0 = phi i32 [ 0, %6 ], [ 27, %3 ]
  store ptr %5, ptr %0, align 8, !tbaa !51
  ret i32 %.0
}